target datalayout = "e-m:e-p270:32:32-p271:32:32-p272:64:64-i64:64-i128:128-f80:128-n8:16:32:64-S128"
target triple = "x86_64-pc-linux-gnu"

%"class.llvm::SmallVectorBase" = type { ptr, i32, i32 }
%"class.llvm::TrackingMDRef" = type { ptr }
%"class.llvm::MDAttachments" = type { %"class.llvm::SmallVector.792" }
%"class.llvm::SmallVector.792" = type { %"class.llvm::SmallVectorImpl.793", %"struct.llvm::SmallVectorStorage.796" }
%"class.llvm::SmallVectorImpl.793" = type { %"class.llvm::SmallVectorTemplateBase.794" }
%"class.llvm::SmallVectorTemplateBase.794" = type { %"class.llvm::SmallVectorTemplateCommon.795" }
%"class.llvm::SmallVectorTemplateCommon.795" = type { %"class.llvm::SmallVectorBase" }
%"struct.llvm::SmallVectorStorage.796" = type { [16 x i8] }
%"struct.llvm::MDAttachments::Attachment" = type { i32, %"class.llvm::TypedTrackingMDRef" }
%"class.llvm::TypedTrackingMDRef" = type { %"class.llvm::TrackingMDRef" }

; Function Attrs: mustprogress nounwind uwtable
define linkonce_odr hidden noundef ptr @_ZNK4llvm13TrackingMDRef3getEv(ptr noundef nonnull align 8 dereferenceable(8) %0) #0 comdat align 2 {
  %2 = alloca ptr, align 8
  store ptr %0, ptr %2, align 8
  %3 = load ptr, ptr %2, align 8
  %4 = getelementptr inbounds nuw %"class.llvm::TrackingMDRef", ptr %3, i32 0, i32 0
  %5 = load ptr, ptr %4, align 8
  ret ptr %5
}

; Function Attrs: mustprogress nounwind uwtable
define linkonce_odr hidden noundef ptr @_ZNK4llvm18TypedTrackingMDRefINS_6MDNodeEE3getEv(ptr noundef nonnull align 8 dereferenceable(8) %0) #0 comdat align 2 {
  %2 = alloca ptr, align 8
  store ptr %0, ptr %2, align 8
  %3 = load ptr, ptr %2, align 8
  %4 = getelementptr inbounds nuw %"class.llvm::TypedTrackingMDRef", ptr %3, i32 0, i32 0
  %5 = call noundef ptr @_ZNK4llvm13TrackingMDRef3getEv(ptr noundef nonnull align 8 dereferenceable(8) %4)
  ret ptr %5
}

; Function Attrs: mustprogress nounwind uwtable
define linkonce_odr hidden noundef ptr @_ZNK4llvm18TypedTrackingMDRefINS_6MDNodeEEcvPS1_Ev(ptr noundef nonnull align 8 dereferenceable(8) %0) #0 comdat align 2 {
  %2 = alloca ptr, align 8
  store ptr %0, ptr %2, align 8
  %3 = load ptr, ptr %2, align 8
  %4 = call noundef ptr @_ZNK4llvm18TypedTrackingMDRefINS_6MDNodeEE3getEv(ptr noundef nonnull align 8 dereferenceable(8) %3)
  ret ptr %4
}

; Function Attrs: mustprogress nounwind uwtable
define linkonce_odr hidden noundef ptr @_ZNK4llvm25SmallVectorTemplateCommonINS_13MDAttachments10AttachmentEvE3endEv(ptr noundef nonnull align 8 dereferenceable(16) %0) #0 comdat align 2 {
  %2 = alloca ptr, align 8
  store ptr %0, ptr %2, align 8
  %3 = load ptr, ptr %2, align 8
  %4 = call noundef ptr @_ZNK4llvm25SmallVectorTemplateCommonINS_13MDAttachments10AttachmentEvE5beginEv(ptr noundef nonnull align 8 dereferenceable(16) %3)
  %5 = call noundef i64 @_ZNK4llvm15SmallVectorBaseIjE4sizeEv(ptr noundef nonnull align 8 dereferenceable(16) %3)
  %6 = getelementptr inbounds %"struct.llvm::MDAttachments::Attachment", ptr %4, i64 %5
  ret ptr %6
}

; Function Attrs: mustprogress nounwind uwtable
define linkonce_odr hidden noundef ptr @_ZNK4llvm25SmallVectorTemplateCommonINS_13MDAttachments10AttachmentEvE5beginEv(ptr noundef nonnull align 8 dereferenceable(16) %0) #0 comdat align 2 {
  %2 = alloca ptr, align 8
  store ptr %0, ptr %2, align 8
  %3 = load ptr, ptr %2, align 8
  %4 = getelementptr inbounds nuw %"class.llvm::SmallVectorBase", ptr %3, i32 0, i32 0
  %5 = load ptr, ptr %4, align 8
  ret ptr %5
}

; Function Attrs: mustprogress nounwind uwtable
define dso_local noundef ptr @_ZNK4llvm13MDAttachments6lookupEj(ptr noundef nonnull align 8 dereferenceable(32) %0, i32 noundef %1) #0 align 2 {
  %3 = alloca ptr, align 8
  %4 = alloca ptr, align 8
  %5 = alloca i32, align 4
  %6 = alloca ptr, align 8
  %7 = alloca ptr, align 8
  %8 = alloca ptr, align 8
  %9 = alloca ptr, align 8
  store ptr %0, ptr %4, align 8
  store i32 %1, ptr %5, align 4
  %10 = load ptr, ptr %4, align 8
  %11 = getelementptr inbounds nuw %"class.llvm::MDAttachments", ptr %10, i32 0, i32 0
  store ptr %11, ptr %6, align 8
  %12 = load ptr, ptr %6, align 8
  %13 = call noundef ptr @_ZNK4llvm25SmallVectorTemplateCommonINS_13MDAttachments10AttachmentEvE5beginEv(ptr noundef nonnull align 8 dereferenceable(16) %12)
  store ptr %13, ptr %7, align 8
  %14 = load ptr, ptr %6, align 8
  %15 = call noundef ptr @_ZNK4llvm25SmallVectorTemplateCommonINS_13MDAttachments10AttachmentEvE3endEv(ptr noundef nonnull align 8 dereferenceable(16) %14)
  store ptr %15, ptr %8, align 8
  br label %16

16:                                               ; preds = %32, %2
  %17 = load ptr, ptr %7, align 8
  %18 = load ptr, ptr %8, align 8
  %19 = icmp ne ptr %17, %18
  br i1 %19, label %20, label %35

20:                                               ; preds = %16
  %21 = load ptr, ptr %7, align 8
  store ptr %21, ptr %9, align 8
  %22 = load ptr, ptr %9, align 8
  %23 = getelementptr inbounds nuw %"struct.llvm::MDAttachments::Attachment", ptr %22, i32 0, i32 0
  %24 = load i32, ptr %23, align 8
  %25 = load i32, ptr %5, align 4
  %26 = icmp eq i32 %24, %25
  br i1 %26, label %27, label %31

27:                                               ; preds = %20
  %28 = load ptr, ptr %9, align 8
  %29 = getelementptr inbounds nuw %"struct.llvm::MDAttachments::Attachment", ptr %28, i32 0, i32 1
  %30 = call noundef ptr @_ZNK4llvm18TypedTrackingMDRefINS_6MDNodeEEcvPS1_Ev(ptr noundef nonnull align 8 dereferenceable(8) %29)
  store ptr %30, ptr %3, align 8
  br label %36

31:                                               ; preds = %20
  br label %32

32:                                               ; preds = %31
  %33 = load ptr, ptr %7, align 8
  %34 = getelementptr inbounds %"struct.llvm::MDAttachments::Attachment", ptr %33, i32 1
  store ptr %34, ptr %7, align 8
  br label %16

35:                                               ; preds = %16
  store ptr null, ptr %3, align 8
  br label %36

36:                                               ; preds = %35, %27
  %37 = load ptr, ptr %3, align 8
  ret ptr %37
}