; Function Attrs: mustprogress nounwind uwtable
define dso_local noundef ptr @_ZNK4llvm13MDAttachments6lookupEj(ptr noundef nonnull align 8 dereferenceable(32) %0, i32 noundef %1) local_unnamed_addr #0 align 2 {
  %3 = load ptr, ptr %0, align 8
  %4 = tail call noundef i64 @_ZNK4llvm15SmallVectorBaseIjE4sizeEv(ptr noundef nonnull align 8 dereferenceable(16) %0) #23
  %5 = getelementptr inbounds %"struct.llvm::MDAttachments::Attachment", ptr %3, i64 %4
  %.not12 = icmp eq i64 %4, 0
  br i1 %.not12, label %.loopexit, label %.lr.ph

.lr.ph:                                           ; preds = %2, %11
  %.01013 = phi ptr [ %12, %11 ], [ %3, %2 ]
  %6 = load i32, ptr %.01013, align 8
  %7 = icmp eq i32 %6, %1
  br i1 %7, label %8, label %11

8:                                                ; preds = %.lr.ph
  %9 = getelementptr inbounds nuw i8, ptr %.01013, i64 8
  %10 = load ptr, ptr %9, align 8
  br label %.loopexit

11:                                               ; preds = %.lr.ph
  %12 = getelementptr inbounds i8, ptr %.01013, i64 16
  %.not = icmp eq ptr %12, %5
  br i1 %.not, label %.loopexit, label %.lr.ph

.loopexit:                                        ; preds = %11, %2, %8
  %.0 = phi ptr [ %10, %8 ], [ null, %2 ], [ null, %11 ]
  ret ptr %.0
}